target datalayout = "e-m:e-p270:32:32-p271:32:32-p272:64:64-i64:64-i128:128-f80:128-n8:16:32:64-S128"
target triple = "x86_64-pc-linux-gnu"

%class.LBMLBTRUTransportDialogInfo = type { ptr, %class.QMap.26, %class.QMap.28 }
%class.QMap.26 = type { %"class.QtPrivate::QExplicitlySharedDataPointerV2.27" }
%"class.QtPrivate::QExplicitlySharedDataPointerV2.27" = type { ptr }
%class.QMap.28 = type { %"class.QtPrivate::QExplicitlySharedDataPointerV2.29" }
%"class.QtPrivate::QExplicitlySharedDataPointerV2.29" = type { ptr }
%class.Ui_LBMLBTRUTransportDialog = type { ptr, ptr, ptr, ptr, ptr, ptr, ptr, ptr, ptr, ptr, ptr, ptr, ptr, ptr, ptr, ptr, ptr, ptr, ptr, ptr, ptr, ptr, ptr, ptr, ptr, ptr, ptr, ptr, ptr, ptr, ptr, ptr, ptr, ptr, ptr, ptr, ptr, ptr, ptr, ptr, ptr, ptr, ptr, ptr, ptr, ptr, ptr, ptr, ptr, ptr, ptr, ptr, ptr, ptr, ptr, ptr, ptr, ptr, ptr, ptr, ptr, ptr, ptr, ptr, ptr, ptr, ptr, ptr, ptr, ptr, ptr, ptr, ptr, ptr, ptr, ptr, ptr, ptr, ptr, ptr, ptr, ptr, ptr, ptr, ptr, ptr, ptr, ptr, ptr, ptr, ptr, ptr }
%class.LBMLBTRUTransportDialog = type { %class.QDialog, ptr, ptr, ptr, ptr, ptr, ptr, ptr, ptr, ptr }
%class.QDialog = type { %class.QWidget }
%class.QWidget = type { %class.QObject, %class.QPaintDevice.base, ptr }
%class.QObject = type { ptr, %class.QScopedPointer }
%class.QScopedPointer = type { ptr }
%class.QPaintDevice.base = type <{ ptr, i16 }>

; Function Attrs: mustprogress null_pointer_is_valid sspstrong uwtable
define void @_ZN23LBMLBTRUTransportDialog14resetReceiversEv(ptr noundef align 8 dereferenceable_or_null(112) %0) #0 align 2 {
  %2 = alloca ptr, align 8
  store ptr %0, ptr %2, align 8
  %3 = load ptr, ptr %2, align 8
  br label %4

4:                                                ; preds = %11, %1
  %5 = getelementptr inbounds nuw %class.LBMLBTRUTransportDialog, ptr %3, i32 0, i32 1
  %6 = load ptr, ptr %5, align 8
  %7 = getelementptr inbounds nuw %class.Ui_LBMLBTRUTransportDialog, ptr %6, i32 0, i32 71
  %8 = load ptr, ptr %7, align 8
  %9 = call noundef ptr @_ZN11QTreeWidget16takeTopLevelItemEi(ptr noundef align 8 dereferenceable_or_null(40) %8, i32 noundef 0)
  %10 = icmp ne ptr %9, null
  br i1 %10, label %11, label %12

11:                                               ; preds = %4
  br label %4, !llvm.loop !34

12:                                               ; preds = %4
  ret void
}

; Function Attrs: mustprogress null_pointer_is_valid sspstrong uwtable
define void @_ZN23LBMLBTRUTransportDialog12resetSourcesEv(ptr noundef align 8 dereferenceable_or_null(112) %0) #0 align 2 {
  %2 = alloca ptr, align 8
  store ptr %0, ptr %2, align 8
  %3 = load ptr, ptr %2, align 8
  br label %4

4:                                                ; preds = %11, %1
  %5 = getelementptr inbounds nuw %class.LBMLBTRUTransportDialog, ptr %3, i32 0, i32 1
  %6 = load ptr, ptr %5, align 8
  %7 = getelementptr inbounds nuw %class.Ui_LBMLBTRUTransportDialog, ptr %6, i32 0, i32 49
  %8 = load ptr, ptr %7, align 8
  %9 = call noundef ptr @_ZN11QTreeWidget16takeTopLevelItemEi(ptr noundef align 8 dereferenceable_or_null(40) %8, i32 noundef 0)
  %10 = icmp ne ptr %9, null
  br i1 %10, label %11, label %12

11:                                               ; preds = %4
  br label %4, !llvm.loop !31

12:                                               ; preds = %4
  ret void
}

; Function Attrs: mustprogress nounwind null_pointer_is_valid sspstrong uwtable
define noundef ptr @_ZN27LBMLBTRUTransportDialogInfo9getDialogEv(ptr noundef align 8 dereferenceable_or_null(24) %0) #5 align 2 {
  %2 = alloca ptr, align 8
  store ptr %0, ptr %2, align 8
  %3 = load ptr, ptr %2, align 8
  %4 = getelementptr inbounds nuw %class.LBMLBTRUTransportDialogInfo, ptr %3, i32 0, i32 0
  %5 = load ptr, ptr %4, align 8
  ret ptr %5
}

; Function Attrs: mustprogress null_pointer_is_valid sspstrong uwtable
define void @_ZN23LBMLBTRUTransportDialog8resetTapEPv(ptr noundef %0) #0 align 2 {
  %2 = alloca ptr, align 8
  %3 = alloca ptr, align 8
  %4 = alloca ptr, align 8
  %5 = alloca i32, align 4
  store ptr %0, ptr %2, align 8
  call void @llvm.lifetime.start.p0(i64 8, ptr %3) #22
  %6 = load ptr, ptr %2, align 8
  store ptr %6, ptr %3, align 8
  call void @llvm.lifetime.start.p0(i64 8, ptr %4) #22
  %7 = load ptr, ptr %3, align 8
  %8 = call noundef ptr @_ZN27LBMLBTRUTransportDialogInfo9getDialogEv(ptr noundef align 8 dereferenceable_or_null(24) %7)
  store ptr %8, ptr %4, align 8
  %9 = load ptr, ptr %4, align 8
  %10 = icmp eq ptr %9, null
  br i1 %10, label %11, label %12

11:                                               ; preds = %1
  store i32 1, ptr %5, align 4
  br label %18

12:                                               ; preds = %1
  %13 = load ptr, ptr %4, align 8
  call void @_ZN23LBMLBTRUTransportDialog18resetSourcesDetailEv(ptr noundef align 8 dereferenceable_or_null(112) %13)
  %14 = load ptr, ptr %4, align 8
  call void @_ZN23LBMLBTRUTransportDialog12resetSourcesEv(ptr noundef align 8 dereferenceable_or_null(112) %14)
  %15 = load ptr, ptr %4, align 8
  call void @_ZN23LBMLBTRUTransportDialog20resetReceiversDetailEv(ptr noundef align 8 dereferenceable_or_null(112) %15)
  %16 = load ptr, ptr %4, align 8
  call void @_ZN23LBMLBTRUTransportDialog14resetReceiversEv(ptr noundef align 8 dereferenceable_or_null(112) %16)
  %17 = load ptr, ptr %3, align 8
  call void @_ZN27LBMLBTRUTransportDialogInfo9clearMapsEv(ptr noundef align 8 dereferenceable_or_null(24) %17)
  store i32 0, ptr %5, align 4
  br label %18

18:                                               ; preds = %12, %11
  call void @llvm.lifetime.end.p0(i64 8, ptr %4) #22
  call void @llvm.lifetime.end.p0(i64 8, ptr %3) #22
  %19 = load i32, ptr %5, align 4
  switch i32 %19, label %21 [
    i32 0, label %20
    i32 1, label %20
  ]

20:                                               ; preds = %18, %18
  ret void

21:                                               ; preds = %18
  unreachable
}