; Function Attrs: mustprogress null_pointer_is_valid sspstrong uwtable
define void @_ZN23LBMLBTRUTransportDialog8resetTapEPv(ptr noundef %0) #0 align 2 {
  %2 = load ptr, ptr %0, align 8
  %3 = icmp eq ptr %2, null
  br i1 %3, label %16, label %4

4:                                                ; preds = %1
  tail call void @_ZN23LBMLBTRUTransportDialog18resetSourcesDetailEv(ptr noundef nonnull align 8 dereferenceable_or_null(112) %2)
  %5 = getelementptr inbounds nuw i8, ptr %2, i64 40
  br label %6

6:                                                ; preds = %6, %4
  %7 = load ptr, ptr %5, align 8
  %8 = getelementptr inbounds nuw i8, ptr %7, i64 392
  %9 = load ptr, ptr %8, align 8
  %10 = tail call noundef ptr @_ZN11QTreeWidget16takeTopLevelItemEi(ptr noundef align 8 dereferenceable_or_null(40) %9, i32 noundef 0)
  %.not.i = icmp eq ptr %10, null
  br i1 %.not.i, label %_ZN23LBMLBTRUTransportDialog12resetSourcesEv.exit, label %6, !llvm.loop !104

_ZN23LBMLBTRUTransportDialog12resetSourcesEv.exit: ; preds = %6
  tail call void @_ZN23LBMLBTRUTransportDialog20resetReceiversDetailEv(ptr noundef nonnull align 8 dereferenceable_or_null(112) %2)
  br label %11

11:                                               ; preds = %11, %_ZN23LBMLBTRUTransportDialog12resetSourcesEv.exit
  %12 = load ptr, ptr %5, align 8
  %13 = getelementptr inbounds nuw i8, ptr %12, i64 568
  %14 = load ptr, ptr %13, align 8
  %15 = tail call noundef ptr @_ZN11QTreeWidget16takeTopLevelItemEi(ptr noundef align 8 dereferenceable_or_null(40) %14, i32 noundef 0)
  %.not.i8 = icmp eq ptr %15, null
  br i1 %.not.i8, label %_ZN23LBMLBTRUTransportDialog14resetReceiversEv.exit, label %11, !llvm.loop !105

_ZN23LBMLBTRUTransportDialog14resetReceiversEv.exit: ; preds = %11
  tail call void @_ZN27LBMLBTRUTransportDialogInfo9clearMapsEv(ptr noundef align 8 dereferenceable_or_null(24) %0)
  br label %16

16:                                               ; preds = %1, %_ZN23LBMLBTRUTransportDialog14resetReceiversEv.exit
  ret void
}